(dp0
S'kurt20.png'
p1
(lp2
S'20_kurt_Capt.png'
p3
aI269
aI122
asS'michael10.png'
p4
(lp5
S'10_mike_Capt.png'
p6
aI269
aI122
asS'anthony08.png'
p7
(lp8
S'08_anthony_Capt.png'
p9
aI269
aI122
asS'michael14.png'
p10
(lp11
S'14_mike_Capt.png'
p12
aI269
aI122
asS'michael15.png'
p13
(lp14
S'15_mike_Capt.png'
p15
aI269
aI122
asS'sarah18-workingman4.png'
p16
(lp17
S'18_sarah_Capt.png'
p18
aI269
aI122
asS'kurt19.png'
p19
(lp20
S'19_kurt_Capt.png'
p21
aI269
aI122
asS'philo09.png'
p22
(lp23
S'09_philo_Capt.png'
p24
aI269
aI122
asS'john02.png'
p25
(lp26
S'02_john_Capt.png'
p27
aI269
aI122
asS'dave11.png'
p28
(lp29
S'11_dave_Capt.png'
p30
aI269
aI122
asS'michael19.png'
p31
(lp32
S'19_mike_Capt.png'
p33
aI269
aI122
asS'anthony03.png'
p34
(lp35
S'03_anthony_Capt.png'
p36
aI269
aI122
asS'michael12.png'
p37
(lp38
S'12_mike_Capt.png'
p39
aI269
aI122
asS'matt18.png'
p40
(lp41
S'18_matt_Capt.png'
p42
aI269
aI122
asS'michael02.png'
p43
(lp44
S'02_mike_Capt.png'
p45
aI269
aI122
asS'michael16.png'
p46
(lp47
S'16_mike_Capt.png'
p48
aI269
aI122
asS'adrian02.png'
p49
(lp50
S'02_adrian_Capt.png'
p51
aI269
aI122
asS'kurt18.png'
p52
(lp53
S'18_kurt_Capt.png'
p54
aI269
aI122
asS'anthony24.png'
p55
(lp56
S'24_anthony_Capt.png'
p57
aI269
aI122
asS'kurt10.png'
p58
(lp59
S'10_kurt_Capt.png'
p60
aI269
aI122
asS'adrian25.png'
p61
(lp62
S'25_adrian_Capt.png'
p63
aI269
aI122
asS'john04.png'
p64
(lp65
S'04_john_Capt.png'
p66
aI269
aI122
asS'sarah11-24.png'
p67
(lp68
S'11_sarah_Capt.png'
p69
aI269
aI122
asS'andrew22.png'
p70
(lp71
S'22_andrew_Capt.png'
p72
aI273
aI122
asS'dave16.png'
p73
(lp74
S'16_dave_Capt.png'
p75
aI269
aI122
asS'anthony01.png'
p76
(lp77
S'01_anthony_Capt.png'
p78
aI269
aI122
asS'sarah06-03.png'
p79
(lp80
S'06_sarah_Capt.png'
p81
aI269
aI122
asS'kurt24.png'
p82
(lp83
S'24_kurt_Capt.png'
p84
aI269
aI122
asS'andrew05.png'
p85
(lp86
S'05_andrew_Capt.png'
p87
aI273
aI122
asS'dave06.png'
p88
(lp89
S'06_dave_Capt.png'
p90
aI269
aI122
asS'anthony27.png'
p91
(lp92
S'27_anthony_Capt.png'
p93
aI269
aI122
asS'john22.png'
p94
(lp95
S'22_john_Capt.png'
p96
aI269
aI122
asS'john23.png'
p97
(lp98
S'23_john_Capt.png'
p99
aI269
aI122
asS'anthony26.png'
p100
(lp101
S'26_anthony_Capt.png'
p102
aI269
aI122
asS'john11.png'
p103
(lp104
S'11_john_Capt.png'
p105
aI269
aI122
asS'john03.png'
p106
(lp107
S'03_john_Capt.png'
p108
aI269
aI122
asS'adrian11.png'
p109
(lp110
S'11_adrian_Capt.png'
p111
aI269
aI122
asS'john07.png'
p112
(lp113
S'07_john_Capt.png'
p114
aI269
aI122
asS'dave15.png'
p115
(lp116
S'15_dave_Capt.png'
p117
aI269
aI122
asS'kurt07.png'
p118
(lp119
S'07_kurt_Capt.png'
p120
aI269
aI122
asS'anthony10.png'
p121
(lp122
S'10_anthony_Capt.png'
p123
aI269
aI122
asS'kurt04.png'
p124
(lp125
S'04_kurt_Capt.png'
p126
aI269
aI122
asS'kurt08.png'
p127
(lp128
S'08_kurt_Capt.png'
p129
aI269
aI122
asS'dave07.png'
p130
(lp131
S'07_dave_Capt.png'
p132
aI269
aI122
asS'sarah16-flying_peacock_sarah_chalek.png'
p133
(lp134
S'16_sarah_Capt.png'
p135
aI269
aI122
asS'john21.png'
p136
(lp137
S'21_john_Capt.png'
p138
aI269
aI122
asS'adrian14.png'
p139
(lp140
S'14_adrian_Capt.png'
p141
aI269
aI122
asS'john17.png'
p142
(lp143
S'17_john_Capt.png'
p144
aI269
aI122
asS'john25.png'
p145
(lp146
S'25_john_Capt.png'
p147
aI269
aI122
asS'andrew19.png'
p148
(lp149
S'19_andrew_Capt.png'
p150
aI273
aI122
asS'dave17.png'
p151
(lp152
S'17_dave_Capt.png'
p153
aI269
aI122
asS'kurt06.png'
p154
(lp155
S'06_kurt_Capt.png'
p156
aI269
aI122
asS'andrew02.png'
p157
(lp158
S'02_andrew_Capt.png'
p159
aI273
aI122
asS'andrew16.png'
p160
(lp161
S'16_andrew_Capt.png'
p162
aI273
aI122
asS'anthony19.png'
p163
(lp164
S'19_anthony_Capt.png'
p165
aI269
aI122
asS'john19.png'
p166
(lp167
S'19_john_Capt.png'
p168
aI269
aI122
asS'philo10.png'
p169
(lp170
S'10_philo_Capt.png'
p171
aI269
aI122
asS'philo08.png'
p172
(lp173
S'08_philo_Capt.png'
p174
aI269
aI122
asS'anthony07.png'
p175
(lp176
S'07_anthony_Capt.png'
p177
aI269
aI122
asS'john10.png'
p178
(lp179
S'10_john_Capt.png'
p180
aI269
aI122
asS'kurt16.png'
p181
(lp182
S'16_kurt_Capt.png'
p183
aI269
aI122
asS'adrian16.png'
p184
(lp185
S'16_adrian_Capt.png'
p186
aI269
aI122
asS'adrian26.png'
p187
(lp188
S'26_adrian_Capt.png'
p189
aI269
aI122
asS'anthony20.png'
p190
(lp191
S'20_anthony_Capt.png'
p192
aI269
aI122
asS'sarah01.png'
p193
(lp194
S'01_sarah_Capt.png'
p195
aI269
aI122
asS'andrew18.png'
p196
(lp197
S'18_andrew_Capt.png'
p198
aI273
aI122
asS'andrew26.png'
p199
(lp200
S'26_andrew_Capt.png'
p201
aI273
aI122
asS'sarah17-kiyomizudera_FINAL.png'
p202
(lp203
S'17_sarah_Capt.png'
p204
aI269
aI122
asS'anthony11.png'
p205
(lp206
S'11_anthony_Capt.png'
p207
aI269
aI122
asS'anthony09.png'
p208
(lp209
S'09_anthony_Capt.png'
p210
aI269
aI122
asS'matt11.png'
p211
(lp212
S'11_matt_Capt.png'
p213
aI269
aI122
asS'adrian20.png'
p214
(lp215
S'20_adrian_Capt.png'
p216
aI269
aI122
asS'adrian21.png'
p217
(lp218
S'21_adrian_Capt.png'
p219
aI269
aI122
asS'john06.png'
p220
(lp221
S'06_john_Capt.png'
p222
aI269
aI122
asS'andrew11.png'
p223
(lp224
S'11_andrew_Capt.png'
p225
aI273
aI122
asS'dave14.png'
p226
(lp227
S'14_dave_Capt.png'
p228
aI269
aI122
asS'kurt01.png'
p229
(lp230
S'01_kurt_Capt.png'
p231
aI269
aI122
asS'dave08.png'
p232
(lp233
S'08_dave_Capt.png'
p234
aI269
aI122
asS'sarah09-18.png'
p235
(lp236
S'09_sarah_Capt.png'
p237
aI269
aI122
asS'kurt09.png'
p238
(lp239
S'09_kurt_Capt.png'
p240
aI269
aI122
asS'matt06.png'
p241
(lp242
S'06_matt_Capt.png'
p243
aI269
aI122
asS'michael06.png'
p244
(lp245
S'06_mike_Capt.png'
p246
aI269
aI122
asS'john20.png'
p247
(lp248
S'20_john_Capt.png'
p249
aI269
aI122
asS'adrian06.png'
p250
(lp251
S'06_adrian_Capt.png'
p252
aI269
aI122
asS'adrian07.png'
p253
(lp254
S'07_adrian_Capt.png'
p255
aI269
aI122
asS'matt13.png'
p256
(lp257
S'13_matt_Capt.png'
p258
aI269
aI122
asS'anthony25.png'
p259
(lp260
S'25_anthony_Capt.png'
p261
aI269
aI122
asS'adrian23.png'
p262
(lp263
S'23_adrian_Capt.png'
p264
aI269
aI122
asS'matt01.png'
p265
(lp266
S'01_matt_Capt.png'
p267
aI269
aI122
asS'anthony21.png'
p268
(lp269
S'21_anthony_Capt.png'
p270
aI269
aI122
asS'adrian27.png'
p271
(lp272
S'27_adrian_Capt.png'
p273
aI269
aI122
asS'michael09.png'
p274
(lp275
S'09_mike_Capt.png'
p276
aI269
aI122
asS'kurt02.png'
p277
(lp278
S'02_kurt_Capt.png'
p279
aI269
aI122
asS'andrew21.png'
p280
(lp281
S'21_andrew_Capt.png'
p282
aI273
aI122
asS'dave12.png'
p283
(lp284
S'12_dave_Capt.png'
p285
aI269
aI122
asS'michael01.png'
p286
(lp287
S'01_mike_Capt.png'
p288
aI269
aI122
asS'michael13.png'
p289
(lp290
S'13_mike_Capt.png'
p291
aI269
aI122
asS'michael05.png'
p292
(lp293
S'05_mike_Capt.png'
p294
aI269
aI122
asS'john09.png'
p295
(lp296
S'09_john_Capt.png'
p297
aI269
aI122
asS'adrian05.png'
p298
(lp299
S'05_adrian_Capt.png'
p300
aI269
aI122
asS'matt10.png'
p301
(lp302
S'10_matt_Capt.png'
p303
aI269
aI122
asS'adrian17.png'
p304
(lp305
S'17_adrian_Capt.png'
p306
aI269
aI122
asS'john12.png'
p307
(lp308
S'12_john_Capt.png'
p309
aI269
aI122
asS'sarah12-aerial.png'
p310
(lp311
S'12_sarah_Capt.png'
p312
aI269
aI122
asS'sarah13-casey.png'
p313
(lp314
S'13_sarah_Capt.png'
p315
aI269
aI122
asS'anthony14.png'
p316
(lp317
S'14_anthony_Capt.png'
p318
aI269
aI122
asS'dave03.png'
p319
(lp320
S'03_dave_Capt.png'
p321
aI269
aI122
asS'dave02.png'
p322
(lp323
S'02_dave_Capt.png'
p324
aI269
aI122
asS'andrew28.png'
p325
(lp326
S'28_andrew_Capt.png'
p327
aI273
aI122
asS'andrew30.png'
p328
(lp329
S'30_andrew_Capt.png'
p330
aI273
aI122
asS'andrew10.png'
p331
(lp332
S'10_andrew_Capt.png'
p333
aI273
aI122
asS'adrian19.png'
p334
(lp335
S'19_adrian_Capt.png'
p336
aI269
aI122
asS'adrian18.png'
p337
(lp338
S'18_adrian_Capt.png'
p339
aI269
aI122
asS'dave13.png'
p340
(lp341
S'13_dave_Capt.png'
p342
aI269
aI122
asS'andrew07.png'
p343
(lp344
S'07_andrew_Capt.png'
p345
aI273
aI122
asS'philo03.png'
p346
(lp347
S'03_philo_Capt.png'
p348
aI269
aI122
asS'matt05.png'
p349
(lp350
S'05_matt_Capt.png'
p351
aI269
aI122
asS'matt04.png'
p352
(lp353
S'04_matt_Capt.png'
p354
aI269
aI122
asS'sarah02.png'
p355
(lp356
S'02_sarah_Capt.png'
p357
aI269
aI122
asS'sarah04.png'
p358
(lp359
S'04_sarah_Capt.png'
p360
aI269
aI122
asS'andrew24.png'
p361
(lp362
S'24_andrew_Capt.png'
p363
aI273
aI122
asS'andrew03.png'
p364
(lp365
S'03_andrew_Capt.png'
p366
aI273
aI122
asS'andrew06.png'
p367
(lp368
S'06_andrew_Capt.png'
p369
aI273
aI122
asS'dave04.png'
p370
(lp371
S'04_dave_Capt.png'
p372
aI269
aI122
asS'anthony16.png'
p373
(lp374
S'16_anthony_Capt.png'
p375
aI269
aI122
asS'john18.png'
p376
(lp377
S'18_john_Capt.png'
p378
aI269
aI122
asS'matt09.png'
p379
(lp380
S'09_matt_Capt.png'
p381
aI269
aI122
asS'matt08.png'
p382
(lp383
S'08_matt_Capt.png'
p384
aI269
aI122
asS'john24.png'
p385
(lp386
S'24_john_Capt.png'
p387
aI269
aI122
asS'john27.png'
p388
(lp389
S'27_john_Capt.png'
p390
aI269
aI122
asS'sarah10-20.png'
p391
(lp392
S'10_sarah_Capt.png'
p393
aI269
aI122
asS'john14.png'
p394
(lp395
S'14_john_Capt.png'
p396
aI269
aI122
asS'adrian22.png'
p397
(lp398
S'22_adrian_Capt.png'
p399
aI269
aI122
asS'kurt17.png'
p400
(lp401
S'17_kurt_Capt.png'
p402
aI269
aI122
asS'dave01.png'
p403
(lp404
S'01_dave_Capt.png'
p405
aI269
aI122
asS'kurt03.png'
p406
(lp407
S'03_kurt_Capt.png'
p408
aI269
aI122
asS'andrew09.png'
p409
(lp410
S'09_andrew_Capt.png'
p411
aI273
aI122
asS'anthony13.png'
p412
(lp413
S'13_anthony_Capt.png'
p414
aI269
aI122
asS'anthony17.png'
p415
(lp416
S'17_anthony_Capt.png'
p417
aI269
aI122
asS'andrew13.png'
p418
(lp419
S'13_andrew_Capt.png'
p420
aI273
aI122
asS'andrew01.png'
p421
(lp422
S'01_andrew_Capt.png'
p423
aI273
aI122
asS'michael04.png'
p424
(lp425
S'04_mike_Capt.png'
p426
aI269
aI122
asS'sarah15-concept2.png'
p427
(lp428
S'15_sarah_Capt.png'
p429
aI269
aI122
asS'dave09.png'
p430
(lp431
S'09_dave_Capt.png'
p432
aI269
aI122
asS'anthony15.png'
p433
(lp434
S'15_anthony_Capt.png'
p435
aI269
aI122
asS'adrian04.png'
p436
(lp437
S'04_adrian_Capt.png'
p438
aI269
aI122
asS'matt02.png'
p439
(lp440
S'02_matt_Capt.png'
p441
aI269
aI122
asS'sarah03.png'
p442
(lp443
S'03_sarah_Capt.png'
p444
aI269
aI122
asS'dave10.png'
p445
(lp446
S'10_dave_Capt.png'
p447
aI269
aI122
asS'john13.png'
p448
(lp449
S'13_john_Capt.png'
p450
aI269
aI122
asS'adrian09.png'
p451
(lp452
S'09_adrian_Capt.png'
p453
aI269
aI122
asS'adrian13.png'
p454
(lp455
S'13_adrian_Capt.png'
p456
aI269
aI122
asS'michael20.png'
p457
(lp458
S'20_mike_Capt.png'
p459
aI269
aI122
asS'kurt23.png'
p460
(lp461
S'23_kurt_Capt.png'
p462
aI269
aI122
asS'kurt05.png'
p463
(lp464
S'05_kurt_Capt.png'
p465
aI269
aI122
asS'philo06.png'
p466
(lp467
S'06_philo_Capt.png'
p468
aI269
aI122
asS'anthony23.png'
p469
(lp470
S'23_anthony_Capt.png'
p471
aI269
aI122
asS'michael11.png'
p472
(lp473
S'11_mike_Capt.png'
p474
aI269
aI122
asS'anthony18.png'
p475
(lp476
S'18_anthony_Capt.png'
p477
aI269
aI122
asS'andrew15.png'
p478
(lp479
S'15_andrew_Capt.png'
p480
aI273
aI122
asS'andrew14.png'
p481
(lp482
S'14_andrew_Capt.png'
p483
aI273
aI122
asS'matt14.png'
p484
(lp485
S'14_matt_Capt.png'
p486
aI269
aI122
asS'adrian15.png'
p487
(lp488
S'15_adrian_Capt.png'
p489
aI269
aI122
asS'philo07.png'
p490
(lp491
S'07_philo_Capt.png'
p492
aI269
aI122
asS'sarah08-16.png'
p493
(lp494
S'08_sarah_Capt.png'
p495
aI269
aI122
asS'john05.png'
p496
(lp497
S'05_john_Capt.png'
p498
aI269
aI122
asS'john16.png'
p499
(lp500
S'16_john_Capt.png'
p501
aI269
aI122
asS'michael21.png'
p502
(lp503
S'21_mike_Capt.png'
p504
aI269
aI122
asS'anthony12.png'
p505
(lp506
S'12_anthony_Capt.png'
p507
aI269
aI122
asS'philo04.png'
p508
(lp509
S'04_philo_Capt.png'
p510
aI269
aI122
asS'anthony02.png'
p511
(lp512
S'02_anthony_Capt.png'
p513
aI269
aI122
asS'andrew12.png'
p514
(lp515
S'12_andrew_Capt.png'
p516
aI273
aI122
asS'michael17.png'
p517
(lp518
S'17_mike_Capt.png'
p519
aI269
aI122
asS'adrian01.png'
p520
(lp521
S'01_adrian_Capt.png'
p522
aI269
aI122
asS'michael18.png'
p523
(lp524
S'18_mike_Capt.png'
p525
aI269
aI122
asS'sarah05-02.png'
p526
(lp527
S'05_sarah_Capt.png'
p528
aI269
aI122
asS'michael22.png'
p529
(lp530
S'22_mike_Capt.png'
p531
aI269
aI122
asS'kurt14.png'
p532
(lp533
S'14_kurt_Capt.png'
p534
aI269
aI122
asS'adrian24.png'
p535
(lp536
S'24_adrian_Capt.png'
p537
aI269
aI122
asS'sarah11-31.png'
p538
(lp539
g69
aI269
aI122
asS'adrian12.png'
p540
(lp541
S'12_adrian_Capt.png'
p542
aI269
aI122
asS'anthony05.png'
p543
(lp544
S'05_anthony_Capt.png'
p545
aI269
aI122
asS'anthony04.png'
p546
(lp547
S'04_anthony_Capt.png'
p548
aI269
aI122
asS'sarah14-coltrane_sarah.png'
p549
(lp550
S'14_sarah_Capt.png'
p551
aI269
aI122
asS'michael03.png'
p552
(lp553
S'03_mike_Capt.png'
p554
aI269
aI122
asS'matt07.png'
p555
(lp556
S'07_matt_Capt.png'
p557
aI269
aI122
asS'andrew29.png'
p558
(lp559
S'29_andrew_Capt.png'
p560
aI273
aI122
asS'andrew04.png'
p561
(lp562
S'04_andrew_Capt.png'
p563
aI273
aI122
asS'anthony22.png'
p564
(lp565
S'22_anthony_Capt.png'
p566
aI269
aI122
asS'adrian28.png'
p567
(lp568
S'28_adrian_Capt.png'
p569
aI269
aI122
asS'adrian03.png'
p570
(lp571
S'03_adrian_Capt.png'
p572
aI269
aI122
asS'matt17.png'
p573
(lp574
S'17_matt_Capt.png'
p575
aI269
aI122
asS'john26.png'
p576
(lp577
S'26_john_Capt.png'
p578
aI269
aI122
asS'adrian08.png'
p579
(lp580
S'08_adrian_Capt.png'
p581
aI269
aI122
asS'john01.png'
p582
(lp583
S'01_john_Capt.png'
p584
aI269
aI122
asS'philo02.png'
p585
(lp586
S'02_philo_Capt.png'
p587
aI269
aI122
asS'kurt12.png'
p588
(lp589
S'12_kurt_Capt.png'
p590
aI269
aI122
asS'kurt13.png'
p591
(lp592
S'13_kurt_Capt.png'
p593
aI269
aI122
asS'andrew08.png'
p594
(lp595
S'08_andrew_Capt.png'
p596
aI273
aI122
asS'andrew23.png'
p597
(lp598
S'23_andrew_Capt.png'
p599
aI273
aI122
asS'andrew20.png'
p600
(lp601
S'20_andrew_Capt.png'
p602
aI273
aI122
asS'andrew25.png'
p603
(lp604
S'25_andrew_Capt.png'
p605
aI273
aI122
asS'michael07.png'
p606
(lp607
S'07_mike_Capt.png'
p608
aI269
aI122
asS'john08.png'
p609
(lp610
S'08_john_Capt.png'
p611
aI269
aI122
asS'anthony06.png'
p612
(lp613
S'06_anthony_Capt.png'
p614
aI269
aI122
asS'kurt15.png'
p615
(lp616
S'15_kurt_Capt.png'
p617
aI269
aI122
asS'philo01.png'
p618
(lp619
S'01_philo_Capt.png'
p620
aI269
aI122
asS'kurt11.png'
p621
(lp622
S'11_kurt_Capt.png'
p623
aI269
aI122
asS'michael08.png'
p624
(lp625
S'08_mike_Capt.png'
p626
aI269
aI122
asS'philo05.png'
p627
(lp628
S'05_philo_Capt.png'
p629
aI269
aI122
asS'kurt21.png'
p630
(lp631
S'21_kurt_Capt.png'
p632
aI269
aI122
asS'andrew27.png'
p633
(lp634
S'27_andrew_Capt.png'
p635
aI273
aI122
asS'kurt22.png'
p636
(lp637
S'22_kurt_Capt.png'
p638
aI269
aI122
asS'sarah07-09.png'
p639
(lp640
S'07_sarah_Capt.png'
p641
aI269
aI122
asS'andrew17.png'
p642
(lp643
S'17_andrew_Capt.png'
p644
aI273
aI122
asS'dave05.png'
p645
(lp646
S'05_dave_Capt.png'
p647
aI269
aI122
asS'matt16.png'
p648
(lp649
S'16_matt_Capt.png'
p650
aI269
aI122
asS'matt12.png'
p651
(lp652
S'12_matt_Capt.png'
p653
aI269
aI122
asS'matt03.png'
p654
(lp655
S'03_matt_Capt.png'
p656
aI269
aI122
asS'john15.png'
p657
(lp658
S'15_john_Capt.png'
p659
aI269
aI122
asS'adrian10.png'
p660
(lp661
S'10_adrian_Capt.png'
p662
aI269
aI122
as.