(dp0
S'kurt20.png'
p1
(lp2
S'20_Kurt_Capt_v3.png'
p3
aI269
aI122
asS'michael10.png'
p4
(lp5
S'10_Mike_Capt_v3.png'
p6
aI269
aI122
asS'anthony08.png'
p7
(lp8
S'08_Anthony_Capt_v3.png'
p9
aI269
aI122
asS'michael14.png'
p10
(lp11
S'14_Mike_Capt_v3.png'
p12
aI269
aI122
asS'michael15.png'
p13
(lp14
S'15_Mike_Capt_v3.png'
p15
aI269
aI122
asS'sarah18-workingman4.png'
p16
(lp17
S'18_Sarah_Capt_v3.png'
p18
aI269
aI122
asS'kurt19.png'
p19
(lp20
S'19_Kurt_Capt_v3.png'
p21
aI269
aI122
asS'philo09.png'
p22
(lp23
S'09_Philo_Capt_v3.png'
p24
aI269
aI122
asS'john02.png'
p25
(lp26
S'02_John_Capt_v3.png'
p27
aI269
aI122
asS'dave11.png'
p28
(lp29
S'11_Dave_Capt_v3.png'
p30
aI269
aI122
asS'michael19.png'
p31
(lp32
S'19_Mike_Capt_v3.png'
p33
aI269
aI122
asS'anthony03.png'
p34
(lp35
S'03_Anthony_Capt_v3.png'
p36
aI269
aI122
asS'michael12.png'
p37
(lp38
S'12_Mike_Capt_v3.png'
p39
aI269
aI122
asS'matt18.png'
p40
(lp41
S'18_Matt_Capt_v3.png'
p42
aI269
aI122
asS'michael02.png'
p43
(lp44
S'02_Mike_Capt_v3.png'
p45
aI269
aI122
asS'michael16.png'
p46
(lp47
S'16_Mike_Capt_v3.png'
p48
aI269
aI122
asS'sarah19.png'
p49
(lp50
S'19_Sarah_Capt_v3.png'
p51
aI269
aI122
asS'adrian02.png'
p52
(lp53
S'02_Adrian_Capt_v3.png'
p54
aI269
aI122
asS'kurt18.png'
p55
(lp56
S'18_Kurt_Capt_v3.png'
p57
aI269
aI122
asS'anthony24.png'
p58
(lp59
S'24_Anthony_Capt_v3.png'
p60
aI269
aI122
asS'kurt10.png'
p61
(lp62
S'10_Kurt_Capt_v3.png'
p63
aI269
aI122
asS'adrian25.png'
p64
(lp65
S'25_Adrian_Capt_v3.png'
p66
aI269
aI122
asS'john04.png'
p67
(lp68
S'04_John_Capt_v3.png'
p69
aI269
aI122
asS'sarah11-24.png'
p70
(lp71
S'11_Sarah_Capt_v3.png'
p72
aI269
aI122
asS'andrew22.png'
p73
(lp74
S'22_Andrew_Capt_v3.png'
p75
aI269
aI122
asS'dave16.png'
p76
(lp77
S'16_Dave_Capt_v3.png'
p78
aI269
aI122
asS'anthony01.png'
p79
(lp80
S'01_Anthony_Capt_v3.png'
p81
aI269
aI122
asS'sarah06-03.png'
p82
(lp83
S'06_Sarah_Capt_v3.png'
p84
aI269
aI122
asS'kurt24.png'
p85
(lp86
S'24_Kurt_Capt_v3.png'
p87
aI269
aI122
asS'andrew05.png'
p88
(lp89
S'05_Andrew_Capt_v3.png'
p90
aI269
aI122
asS'dave06.png'
p91
(lp92
S'06_Dave_Capt_v3.png'
p93
aI269
aI122
asS'anthony27.png'
p94
(lp95
S'27_Anthony_Capt_v3.png'
p96
aI269
aI122
asS'john22.png'
p97
(lp98
S'22_John_Capt_v3.png'
p99
aI269
aI122
asS'john23.png'
p100
(lp101
S'23_John_Capt_v3.png'
p102
aI269
aI122
asS'anthony26.png'
p103
(lp104
S'26_Anthony_Capt_v3.png'
p105
aI269
aI122
asS'john11.png'
p106
(lp107
S'11_John_Capt_v3.png'
p108
aI269
aI122
asS'john03.png'
p109
(lp110
S'03_John_Capt_v3.png'
p111
aI269
aI122
asS'adrian11.png'
p112
(lp113
S'11_Adrian_Capt_v3.png'
p114
aI269
aI122
asS'john07.png'
p115
(lp116
S'07_John_Capt_v3.png'
p117
aI269
aI122
asS'dave15.png'
p118
(lp119
S'15_Dave_Capt_v3.png'
p120
aI269
aI122
asS'kurt07.png'
p121
(lp122
S'07_Kurt_Capt_v3.png'
p123
aI269
aI122
asS'anthony10.png'
p124
(lp125
S'10_Anthony_Capt_v3.png'
p126
aI269
aI122
asS'kurt04.png'
p127
(lp128
S'04_Kurt_Capt_v3.png'
p129
aI269
aI122
asS'kurt08.png'
p130
(lp131
S'08_Kurt_Capt_v3.png'
p132
aI269
aI122
asS'dave07.png'
p133
(lp134
S'07_Dave_Capt_v3.png'
p135
aI269
aI122
asS'sarah16-flying_peacock_sarah_chalek.png'
p136
(lp137
S'16_Sarah_Capt_v3.png'
p138
aI269
aI122
asS'john21.png'
p139
(lp140
S'21_John_Capt_v3.png'
p141
aI269
aI122
asS'adrian14.png'
p142
(lp143
S'14_Adrian_Capt_v3.png'
p144
aI269
aI122
asS'john17.png'
p145
(lp146
S'17_John_Capt_v3.png'
p147
aI269
aI122
asS'john25.png'
p148
(lp149
S'25_John_Capt_v3.png'
p150
aI269
aI122
asS'andrew19.png'
p151
(lp152
S'19_Andrew_Capt_v3.png'
p153
aI269
aI122
asS'dave17.png'
p154
(lp155
S'17_Dave_Capt_v3.png'
p156
aI269
aI122
asS'kurt06.png'
p157
(lp158
S'06_Kurt_Capt_v3.png'
p159
aI269
aI122
asS'andrew02.png'
p160
(lp161
S'02_Andrew_Capt_v3.png'
p162
aI269
aI122
asS'andrew16.png'
p163
(lp164
S'16_Andrew_Capt_v3.png'
p165
aI269
aI122
asS'anthony19.png'
p166
(lp167
S'19_Anthony_Capt_v3.png'
p168
aI269
aI122
asS'john19.png'
p169
(lp170
S'19_John_Capt_v3.png'
p171
aI269
aI122
asS'philo08.png'
p172
(lp173
S'08_Philo_Capt_v3.png'
p174
aI269
aI122
asS'anthony07.png'
p175
(lp176
S'07_Anthony_Capt_v3.png'
p177
aI269
aI122
asS'john10.png'
p178
(lp179
S'10_John_Capt_v3.png'
p180
aI269
aI122
asS'kurt16.png'
p181
(lp182
S'16_Kurt_Capt_v3.png'
p183
aI269
aI122
asS'adrian16.png'
p184
(lp185
S'16_Adrian_Capt_v3.png'
p186
aI269
aI122
asS'adrian26.png'
p187
(lp188
S'26_Adrian_Capt_v3.png'
p189
aI269
aI122
asS'anthony20.png'
p190
(lp191
S'20_Anthony_Capt_v3.png'
p192
aI269
aI122
asS'sarah01.png'
p193
(lp194
S'01_Sarah_Capt_v3.png'
p195
aI269
aI122
asS'andrew18.png'
p196
(lp197
S'18_Andrew_Capt_v3.png'
p198
aI269
aI122
asS'andrew26.png'
p199
(lp200
S'26_Andrew_Capt_v3.png'
p201
aI269
aI122
asS'sarah17-kiyomizudera_FINAL.png'
p202
(lp203
S'17_Sarah_Capt_v3.png'
p204
aI269
aI122
asS'anthony11.png'
p205
(lp206
S'11_Anthony_Capt_v3.png'
p207
aI269
aI122
asS'anthony09.png'
p208
(lp209
S'09_Anthony_Capt_v3.png'
p210
aI269
aI122
asS'matt11.png'
p211
(lp212
S'11_Matt_Capt_v3.png'
p213
aI269
aI122
asS'adrian20.png'
p214
(lp215
S'20_Adrian_Capt_v3.png'
p216
aI269
aI122
asS'adrian21.png'
p217
(lp218
S'21_Adrian_Capt_v3.png'
p219
aI269
aI122
asS'john06.png'
p220
(lp221
S'06_John_Capt_v3.png'
p222
aI269
aI122
asS'andrew11.png'
p223
(lp224
S'11_Andrew_Capt_v3.png'
p225
aI269
aI122
asS'dave14.png'
p226
(lp227
S'14_Dave_Capt_v3.png'
p228
aI269
aI122
asS'kurt01.png'
p229
(lp230
S'01_Kurt_Capt_v3.png'
p231
aI269
aI122
asS'dave08.png'
p232
(lp233
S'08_Dave_Capt_v3.png'
p234
aI269
aI122
asS'sarah09-18.png'
p235
(lp236
S'09_Sarah_Capt_v3.png'
p237
aI269
aI122
asS'kurt09.png'
p238
(lp239
S'09_Kurt_Capt_v3.png'
p240
aI269
aI122
asS'matt06.png'
p241
(lp242
S'06_Matt_Capt_v3.png'
p243
aI269
aI122
asS'michael06.png'
p244
(lp245
S'06_Mike_Capt_v3.png'
p246
aI269
aI122
asS'john20.png'
p247
(lp248
S'20_John_Capt_v3.png'
p249
aI269
aI122
asS'adrian06.png'
p250
(lp251
S'06_Adrian_Capt_v3.png'
p252
aI269
aI122
asS'adrian07.png'
p253
(lp254
S'07_Adrian_Capt_v3.png'
p255
aI269
aI122
asS'matt13.png'
p256
(lp257
S'13_Matt_Capt_v3.png'
p258
aI269
aI122
asS'anthony25.png'
p259
(lp260
S'25_Anthony_Capt_v3.png'
p261
aI269
aI122
asS'adrian23.png'
p262
(lp263
S'23_Adrian_Capt_v3.png'
p264
aI269
aI122
asS'matt01.png'
p265
(lp266
S'01_Matt_Capt_v3.png'
p267
aI269
aI122
asS'anthony21.png'
p268
(lp269
S'21_Anthony_Capt_v3.png'
p270
aI269
aI122
asS'adrian27.png'
p271
(lp272
S'27_Adrian_Capt_v3.png'
p273
aI269
aI122
asS'michael09.png'
p274
(lp275
S'09_Mike_Capt_v3.png'
p276
aI269
aI122
asS'kurt02.png'
p277
(lp278
S'02_Kurt_Capt_v3.png'
p279
aI269
aI122
asS'andrew21.png'
p280
(lp281
S'21_Andrew_Capt_v3.png'
p282
aI269
aI122
asS'dave12.png'
p283
(lp284
S'12_Dave_Capt_v3.png'
p285
aI269
aI122
asS'michael01.png'
p286
(lp287
S'01_Mike_Capt_v3.png'
p288
aI269
aI122
asS'michael13.png'
p289
(lp290
S'13_Mike_Capt_v3.png'
p291
aI269
aI122
asS'michael05.png'
p292
(lp293
S'05_Mike_Capt_v3.png'
p294
aI269
aI122
asS'john09.png'
p295
(lp296
S'09_John_Capt_v3.png'
p297
aI269
aI122
asS'adrian05.png'
p298
(lp299
S'05_Adrian_Capt_v3.png'
p300
aI269
aI122
asS'matt10.png'
p301
(lp302
S'10_Matt_Capt_v3.png'
p303
aI269
aI122
asS'adrian17.png'
p304
(lp305
S'17_Adrian_Capt_v3.png'
p306
aI269
aI122
asS'john12.png'
p307
(lp308
S'12_John_Capt_v3.png'
p309
aI269
aI122
asS'sarah12-aerial.png'
p310
(lp311
S'12_Sarah_Capt_v3.png'
p312
aI269
aI122
asS'sarah13-casey.png'
p313
(lp314
S'13_Sarah_Capt_v3.png'
p315
aI269
aI122
asS'anthony14.png'
p316
(lp317
S'14_Anthony_Capt_v3.png'
p318
aI269
aI122
asS'dave03.png'
p319
(lp320
S'03_Dave_Capt_v3.png'
p321
aI269
aI122
asS'dave02.png'
p322
(lp323
S'02_Dave_Capt_v3.png'
p324
aI269
aI122
asS'andrew28.png'
p325
(lp326
S'28_Andrew_Capt_v3.png'
p327
aI269
aI122
asS'andrew30.png'
p328
(lp329
S'30_Andrew_Capt_v3.png'
p330
aI269
aI122
asS'matt15.png'
p331
(lp332
S'15_Matt_Capt_v3.png'
p333
aI269
aI122
asS'andrew10.png'
p334
(lp335
S'10_Andrew_Capt_v3.png'
p336
aI269
aI122
asS'adrian19.png'
p337
(lp338
S'19_Adrian_Capt_v3.png'
p339
aI269
aI122
asS'adrian18.png'
p340
(lp341
S'18_Adrian_Capt_v3.png'
p342
aI269
aI122
asS'dave13.png'
p343
(lp344
S'13_Dave_Capt_v3.png'
p345
aI269
aI122
asS'andrew07.png'
p346
(lp347
S'07_Andrew_Capt_v3.png'
p348
aI269
aI122
asS'philo03.png'
p349
(lp350
S'03_Philo_Capt_v3.png'
p351
aI269
aI122
asS'matt05.png'
p352
(lp353
S'05_Matt_Capt_v3.png'
p354
aI269
aI122
asS'matt04.png'
p355
(lp356
S'04_Matt_Capt_v3.png'
p357
aI269
aI122
asS'sarah02.png'
p358
(lp359
S'02_Sarah_Capt_v3.png'
p360
aI269
aI122
asS'sarah04.png'
p361
(lp362
S'04_Sarah_Capt_v3.png'
p363
aI269
aI122
asS'andrew24.png'
p364
(lp365
S'24_Andrew_Capt_v3.png'
p366
aI269
aI122
asS'andrew03.png'
p367
(lp368
S'03_Andrew_Capt_v3.png'
p369
aI269
aI122
asS'andrew06.png'
p370
(lp371
S'06_Andrew_Capt_v3.png'
p372
aI269
aI122
asS'dave04.png'
p373
(lp374
S'04_Dave_Capt_v3.png'
p375
aI269
aI122
asS'anthony16.png'
p376
(lp377
S'16_Anthony_Capt_v3.png'
p378
aI269
aI122
asS'john18.png'
p379
(lp380
S'18_John_Capt_v3.png'
p381
aI269
aI122
asS'matt09.png'
p382
(lp383
S'09_Matt_Capt_v3.png'
p384
aI269
aI122
asS'matt08.png'
p385
(lp386
S'08_Matt_Capt_v3.png'
p387
aI269
aI122
asS'john24.png'
p388
(lp389
S'24_John_Capt_v3.png'
p390
aI269
aI122
asS'john27.png'
p391
(lp392
S'27_John_Capt_v3.png'
p393
aI269
aI122
asS'sarah10-20.png'
p394
(lp395
S'10_Sarah_Capt_v3.png'
p396
aI269
aI122
asS'matt02.png'
p397
(lp398
S'02_Matt_Capt_v3.png'
p399
aI269
aI122
asS'adrian22.png'
p400
(lp401
S'22_Adrian_Capt_v3.png'
p402
aI269
aI122
asS'kurt17.png'
p403
(lp404
S'17_Kurt_Capt_v3.png'
p405
aI269
aI122
asS'dave01.png'
p406
(lp407
S'01_Dave_Capt_v3.png'
p408
aI269
aI122
asS'kurt03.png'
p409
(lp410
S'03_Kurt_Capt_v3.png'
p411
aI269
aI122
asS'andrew09.png'
p412
(lp413
S'09_Andrew_Capt_v3.png'
p414
aI269
aI122
asS'anthony13.png'
p415
(lp416
S'13_Anthony_Capt_v3.png'
p417
aI269
aI122
asS'anthony17.png'
p418
(lp419
S'17_Anthony_Capt_v3.png'
p420
aI269
aI122
asS'andrew13.png'
p421
(lp422
S'13_Andrew_Capt_v3.png'
p423
aI269
aI122
asS'andrew01.png'
p424
(lp425
S'01_Andrew_Capt_v3.png'
p426
aI269
aI122
asS'michael04.png'
p427
(lp428
S'04_Mike_Capt_v3.png'
p429
aI269
aI122
asS'sarah15-concept2.png'
p430
(lp431
S'15_Sarah_Capt_v3.png'
p432
aI269
aI122
asS'dave09.png'
p433
(lp434
S'09_Dave_Capt_v3.png'
p435
aI269
aI122
asS'anthony15.png'
p436
(lp437
S'15_Anthony_Capt_v3.png'
p438
aI269
aI122
asS'adrian04.png'
p439
(lp440
S'04_Adrian_Capt_v3.png'
p441
aI269
aI122
asS'philo10.png'
p442
(lp443
S'10_Philo_Capt_v3.png'
p444
aI269
aI122
asS'sarah03.png'
p445
(lp446
S'03_Sarah_Capt_v3.png'
p447
aI269
aI122
asS'dave10.png'
p448
(lp449
S'10_Dave_Capt_v3.png'
p450
aI269
aI122
asS'john13.png'
p451
(lp452
S'13_John_Capt_v3.png'
p453
aI269
aI122
asS'adrian09.png'
p454
(lp455
S'09_Adrian_Capt_v3.png'
p456
aI269
aI122
asS'adrian13.png'
p457
(lp458
S'13_Adrian_Capt_v3.png'
p459
aI269
aI122
asS'michael20.png'
p460
(lp461
S'20_Mike_Capt_v3.png'
p462
aI269
aI122
asS'kurt23.png'
p463
(lp464
S'23_Kurt_Capt_v3.png'
p465
aI269
aI122
asS'kurt05.png'
p466
(lp467
S'05_Kurt_Capt_v3.png'
p468
aI269
aI122
asS'philo06.png'
p469
(lp470
S'06_Philo_Capt_v3.png'
p471
aI269
aI122
asS'anthony23.png'
p472
(lp473
S'23_Anthony_Capt_v3.png'
p474
aI269
aI122
asS'michael11.png'
p475
(lp476
S'11_Mike_Capt_v3.png'
p477
aI269
aI122
asS'anthony18.png'
p478
(lp479
S'18_Anthony_Capt_v3.png'
p480
aI269
aI122
asS'andrew15.png'
p481
(lp482
S'15_Andrew_Capt_v3.png'
p483
aI269
aI122
asS'andrew14.png'
p484
(lp485
S'14_Andrew_Capt_v3.png'
p486
aI269
aI122
asS'matt14.png'
p487
(lp488
S'14_Matt_Capt_v3.png'
p489
aI269
aI122
asS'adrian15.png'
p490
(lp491
S'15_Adrian_Capt_v3.png'
p492
aI269
aI122
asS'philo07.png'
p493
(lp494
S'07_Philo_Capt_v3.png'
p495
aI269
aI122
asS'sarah08-16.png'
p496
(lp497
S'08_Sarah_Capt_v3.png'
p498
aI269
aI122
asS'john05.png'
p499
(lp500
S'05_John_Capt_v3.png'
p501
aI269
aI122
asS'john16.png'
p502
(lp503
S'16_John_Capt_v3.png'
p504
aI269
aI122
asS'michael21.png'
p505
(lp506
S'21_Mike_Capt_v3.png'
p507
aI269
aI122
asS'anthony12.png'
p508
(lp509
S'12_Anthony_Capt_v3.png'
p510
aI269
aI122
asS'philo04.png'
p511
(lp512
S'04_Philo_Capt_v3.png'
p513
aI269
aI122
asS'anthony02.png'
p514
(lp515
S'02_Anthony_Capt_v3.png'
p516
aI269
aI122
asS'andrew12.png'
p517
(lp518
S'12_Andrew_Capt_v3.png'
p519
aI269
aI122
asS'michael17.png'
p520
(lp521
S'17_Mike_Capt_v3.png'
p522
aI269
aI122
asS'adrian01.png'
p523
(lp524
S'01_Adrian_Capt_v3.png'
p525
aI269
aI122
asS'michael18.png'
p526
(lp527
S'18_Mike_Capt_v3.png'
p528
aI269
aI122
asS'sarah05-02.png'
p529
(lp530
S'05_Sarah_Capt_v3.png'
p531
aI269
aI122
asS'michael22.png'
p532
(lp533
S'22_Mike_Capt_v3.png'
p534
aI269
aI122
asS'kurt14.png'
p535
(lp536
S'14_Kurt_Capt_v3.png'
p537
aI269
aI122
asS'adrian24.png'
p538
(lp539
S'24_Adrian_Capt_v3.png'
p540
aI269
aI122
asS'anthony22.png'
p541
(lp542
S'22_Anthony_Capt_v3.png'
p543
aI269
aI122
asS'adrian12.png'
p544
(lp545
S'12_Adrian_Capt_v3.png'
p546
aI269
aI122
asS'anthony05.png'
p547
(lp548
S'05_Anthony_Capt_v3.png'
p549
aI269
aI122
asS'anthony04.png'
p550
(lp551
S'04_Anthony_Capt_v3.png'
p552
aI269
aI122
asS'sarah14-coltrane_sarah.png'
p553
(lp554
S'14_Sarah_Capt_v3.png'
p555
aI269
aI122
asS'michael03.png'
p556
(lp557
S'03_Mike_Capt_v3.png'
p558
aI269
aI122
asS'matt07.png'
p559
(lp560
S'07_Matt_Capt_v3.png'
p561
aI269
aI122
asS'andrew29.png'
p562
(lp563
S'29_Andrew_Capt_v3.png'
p564
aI269
aI122
asS'andrew04.png'
p565
(lp566
S'04_Andrew_Capt_v3.png'
p567
aI269
aI122
asS'john14.png'
p568
(lp569
S'14_John_Capt_v3.png'
p570
aI269
aI122
asS'adrian28.png'
p571
(lp572
S'28_Adrian_Capt_v3.png'
p573
aI269
aI122
asS'adrian03.png'
p574
(lp575
S'03_Adrian_Capt_v3.png'
p576
aI269
aI122
asS'matt17.png'
p577
(lp578
S'17_Matt_Capt_v3.png'
p579
aI269
aI122
asS'john26.png'
p580
(lp581
S'26_John_Capt_v3.png'
p582
aI269
aI122
asS'adrian08.png'
p583
(lp584
S'08_Adrian_Capt_v3.png'
p585
aI269
aI122
asS'john01.png'
p586
(lp587
S'01_John_Capt_v3.png'
p588
aI269
aI122
asS'philo02.png'
p589
(lp590
S'02_Philo_Capt_v3.png'
p591
aI269
aI122
asS'kurt12.png'
p592
(lp593
S'12_Kurt_Capt_v3.png'
p594
aI269
aI122
asS'kurt13.png'
p595
(lp596
S'13_Kurt_Capt_v3.png'
p597
aI269
aI122
asS'andrew08.png'
p598
(lp599
S'08_Andrew_Capt_v3.png'
p600
aI269
aI122
asS'andrew23.png'
p601
(lp602
S'23_Andrew_Capt_v3.png'
p603
aI269
aI122
asS'andrew20.png'
p604
(lp605
S'20_Andrew_Capt_v3.png'
p606
aI269
aI122
asS'andrew25.png'
p607
(lp608
S'25_Andrew_Capt_v3.png'
p609
aI269
aI122
asS'michael07.png'
p610
(lp611
S'07_Mike_Capt_v3.png'
p612
aI269
aI122
asS'john08.png'
p613
(lp614
S'08_John_Capt_v3.png'
p615
aI269
aI122
asS'anthony06.png'
p616
(lp617
S'06_Anthony_Capt_v3.png'
p618
aI269
aI122
asS'kurt15.png'
p619
(lp620
S'15_Kurt_Capt_v3.png'
p621
aI269
aI122
asS'philo01.png'
p622
(lp623
S'01_Philo_Capt_v3.png'
p624
aI269
aI122
asS'kurt11.png'
p625
(lp626
S'11_Kurt_Capt_v3.png'
p627
aI269
aI122
asS'michael08.png'
p628
(lp629
S'08_Mike_Capt_v3.png'
p630
aI269
aI122
asS'philo05.png'
p631
(lp632
S'05_Philo_Capt_v3.png'
p633
aI269
aI122
asS'kurt21.png'
p634
(lp635
S'21_Kurt_Capt_v3.png'
p636
aI269
aI122
asS'andrew27.png'
p637
(lp638
S'27_Andrew_Capt_v3.png'
p639
aI269
aI122
asS'kurt22.png'
p640
(lp641
S'22_Kurt_Capt_v3.png'
p642
aI269
aI122
asS'sarah07-09.png'
p643
(lp644
S'07_Sarah_Capt_v3.png'
p645
aI269
aI122
asS'andrew17.png'
p646
(lp647
S'17_Andrew_Capt_v3.png'
p648
aI269
aI122
asS'dave05.png'
p649
(lp650
S'05_Dave_Capt_v3.png'
p651
aI269
aI122
asS'matt16.png'
p652
(lp653
S'16_Matt_Capt_v3.png'
p654
aI269
aI122
asS'matt12.png'
p655
(lp656
S'12_Matt_Capt_v3.png'
p657
aI269
aI122
asS'matt03.png'
p658
(lp659
S'03_Matt_Capt_v3.png'
p660
aI269
aI122
asS'john15.png'
p661
(lp662
S'15_John_Capt_v3.png'
p663
aI269
aI122
asS'adrian10.png'
p664
(lp665
S'10_Adrian_Capt_v3.png'
p666
aI269
aI122
as.